; Function Attrs: inlinehint mustprogress nounwind uwtable
define internal void @_ZN8QuantLib12_GLOBAL__N_123HypersphereCostFunctionD0Ev(ptr noundef nonnull align 8 dereferenceable(136) %this) unnamed_addr #3 align 2 personality ptr @__gxx_personality_v0 {
entry:
  store ptr getelementptr inbounds inrange(-16, 72) (i8, ptr @_ZTVN8QuantLib12_GLOBAL__N_123HypersphereCostFunctionE, i64 16), ptr %this, align 8, !tbaa !24
  %currentMatrix_.i = getelementptr inbounds nuw i8, ptr %this, i64 112
  %0 = load ptr, ptr %currentMatrix_.i, align 8, !tbaa !21
  %cmp.not.i.i.i = icmp eq ptr %0, null
  br i1 %cmp.not.i.i.i, label %_ZN8QuantLib6MatrixD2Ev.exit.i, label %_ZNKSt14default_deleteIA_dEclIdEENSt9enable_ifIXsr14is_convertibleIPA_T_PS0_EE5valueEvE4typeEPS4_.exit.i.i.i

_ZNKSt14default_deleteIA_dEclIdEENSt9enable_ifIXsr14is_convertibleIPA_T_PS0_EE5valueEvE4typeEPS4_.exit.i.i.i: ; preds = %entry
  tail call void @_ZdaPv(ptr noundef nonnull %0) #24
  br label %_ZN8QuantLib6MatrixD2Ev.exit.i

_ZN8QuantLib6MatrixD2Ev.exit.i:                   ; preds = %_ZNKSt14default_deleteIA_dEclIdEENSt9enable_ifIXsr14is_convertibleIPA_T_PS0_EE5valueEvE4typeEPS4_.exit.i.i.i, %entry
  store ptr null, ptr %currentMatrix_.i, align 8, !tbaa !21
  %tempMatrix_.i = getelementptr inbounds nuw i8, ptr %this, i64 88
  %1 = load ptr, ptr %tempMatrix_.i, align 8, !tbaa !21
  %cmp.not.i.i1.i = icmp eq ptr %1, null
  br i1 %cmp.not.i.i1.i, label %_ZN8QuantLib6MatrixD2Ev.exit3.i, label %_ZNKSt14default_deleteIA_dEclIdEENSt9enable_ifIXsr14is_convertibleIPA_T_PS0_EE5valueEvE4typeEPS4_.exit.i.i2.i

_ZNKSt14default_deleteIA_dEclIdEENSt9enable_ifIXsr14is_convertibleIPA_T_PS0_EE5valueEvE4typeEPS4_.exit.i.i2.i: ; preds = %_ZN8QuantLib6MatrixD2Ev.exit.i
  tail call void @_ZdaPv(ptr noundef nonnull %1) #24
  br label %_ZN8QuantLib6MatrixD2Ev.exit3.i

_ZN8QuantLib6MatrixD2Ev.exit3.i:                  ; preds = %_ZNKSt14default_deleteIA_dEclIdEENSt9enable_ifIXsr14is_convertibleIPA_T_PS0_EE5valueEvE4typeEPS4_.exit.i.i2.i, %_ZN8QuantLib6MatrixD2Ev.exit.i
  store ptr null, ptr %tempMatrix_.i, align 8, !tbaa !21
  %currentRoot_.i = getelementptr inbounds nuw i8, ptr %this, i64 64
  %2 = load ptr, ptr %currentRoot_.i, align 8, !tbaa !21
  %cmp.not.i.i4.i = icmp eq ptr %2, null
  br i1 %cmp.not.i.i4.i, label %_ZN8QuantLib6MatrixD2Ev.exit6.i, label %_ZNKSt14default_deleteIA_dEclIdEENSt9enable_ifIXsr14is_convertibleIPA_T_PS0_EE5valueEvE4typeEPS4_.exit.i.i5.i

_ZNKSt14default_deleteIA_dEclIdEENSt9enable_ifIXsr14is_convertibleIPA_T_PS0_EE5valueEvE4typeEPS4_.exit.i.i5.i: ; preds = %_ZN8QuantLib6MatrixD2Ev.exit3.i
  tail call void @_ZdaPv(ptr noundef nonnull %2) #24
  br label %_ZN8QuantLib6MatrixD2Ev.exit6.i

_ZN8QuantLib6MatrixD2Ev.exit6.i:                  ; preds = %_ZNKSt14default_deleteIA_dEclIdEENSt9enable_ifIXsr14is_convertibleIPA_T_PS0_EE5valueEvE4typeEPS4_.exit.i.i5.i, %_ZN8QuantLib6MatrixD2Ev.exit3.i
  store ptr null, ptr %currentRoot_.i, align 8, !tbaa !21
  %targetVariance_.i = getelementptr inbounds nuw i8, ptr %this, i64 48
  %3 = load ptr, ptr %targetVariance_.i, align 8, !tbaa !21
  %cmp.not.i.i7.i = icmp eq ptr %3, null
  br i1 %cmp.not.i.i7.i, label %_ZN8QuantLib5ArrayD2Ev.exit.i, label %_ZNKSt14default_deleteIA_dEclIdEENSt9enable_ifIXsr14is_convertibleIPA_T_PS0_EE5valueEvE4typeEPS4_.exit.i.i8.i

_ZNKSt14default_deleteIA_dEclIdEENSt9enable_ifIXsr14is_convertibleIPA_T_PS0_EE5valueEvE4typeEPS4_.exit.i.i8.i: ; preds = %_ZN8QuantLib6MatrixD2Ev.exit6.i
  tail call void @_ZdaPv(ptr noundef nonnull %3) #24
  br label %_ZN8QuantLib5ArrayD2Ev.exit.i

_ZN8QuantLib5ArrayD2Ev.exit.i:                    ; preds = %_ZNKSt14default_deleteIA_dEclIdEENSt9enable_ifIXsr14is_convertibleIPA_T_PS0_EE5valueEvE4typeEPS4_.exit.i.i8.i, %_ZN8QuantLib6MatrixD2Ev.exit6.i
  store ptr null, ptr %targetVariance_.i, align 8, !tbaa !21
  %targetMatrix_.i = getelementptr inbounds nuw i8, ptr %this, i64 24
  %4 = load ptr, ptr %targetMatrix_.i, align 8, !tbaa !21
  %cmp.not.i.i9.i = icmp eq ptr %4, null
  br i1 %cmp.not.i.i9.i, label %_ZN8QuantLib12_GLOBAL__N_123HypersphereCostFunctionD2Ev.exit, label %_ZNKSt14default_deleteIA_dEclIdEENSt9enable_ifIXsr14is_convertibleIPA_T_PS0_EE5valueEvE4typeEPS4_.exit.i.i10.i

_ZNKSt14default_deleteIA_dEclIdEENSt9enable_ifIXsr14is_convertibleIPA_T_PS0_EE5valueEvE4typeEPS4_.exit.i.i10.i: ; preds = %_ZN8QuantLib5ArrayD2Ev.exit.i
  tail call void @_ZdaPv(ptr noundef nonnull %4) #24
  br label %_ZN8QuantLib12_GLOBAL__N_123HypersphereCostFunctionD2Ev.exit

_ZN8QuantLib12_GLOBAL__N_123HypersphereCostFunctionD2Ev.exit: ; preds = %_ZN8QuantLib5ArrayD2Ev.exit.i, %_ZNKSt14default_deleteIA_dEclIdEENSt9enable_ifIXsr14is_convertibleIPA_T_PS0_EE5valueEvE4typeEPS4_.exit.i.i10.i
  tail call void @_ZdlPvm(ptr noundef nonnull %this, i64 noundef 136) #24
  ret void
}